; Function Attrs: mustprogress uwtable
define i32 @uidna_nameToUnicodeUTF8_77(ptr noundef %0, ptr noundef %1, i32 noundef %2, ptr noundef %3, i32 noundef %4, ptr noundef %5, ptr noundef %6) local_unnamed_addr #1 personality ptr @__gxx_personality_v0 {
  %8 = alloca %"class.icu_77::IDNAInfo", align 4
  %9 = alloca %"class.icu_77::CheckedArrayByteSink", align 8
  %10 = load i32, ptr %6, align 4, !tbaa !13
  %11 = icmp slt i32 %10, 1
  br i1 %11, label %12, label %"_ZN6icu_7712ByteSinkUtil28viaByteSinkToTerminatedCharsIZ26uidna_nameToUnicodeUTF8_77E3$_0vEEiPciOT_R10UErrorCode.exit"

12:                                               ; preds = %7
  %13 = icmp eq ptr %5, null
  br i1 %13, label %17, label %14

14:                                               ; preds = %12
  %15 = load i16, ptr %5, align 4, !tbaa !46
  %16 = icmp slt i16 %15, 16
  br i1 %16, label %17, label %18

17:                                               ; preds = %14, %12
  store i32 1, ptr %6, align 4, !tbaa !13
  br label %"_ZN6icu_7712ByteSinkUtil28viaByteSinkToTerminatedCharsIZ26uidna_nameToUnicodeUTF8_77E3$_0vEEiPciOT_R10UErrorCode.exit"

18:                                               ; preds = %14
  %19 = icmp eq ptr %1, null
  br i1 %19, label %20, label %21

20:                                               ; preds = %18
  %.not18.i = icmp eq i32 %2, 0
  br i1 %.not18.i, label %23, label %31

21:                                               ; preds = %18
  %22 = icmp slt i32 %2, -1
  br i1 %22, label %31, label %23

23:                                               ; preds = %21, %20
  %24 = icmp eq ptr %3, null
  br i1 %24, label %25, label %26

25:                                               ; preds = %23
  %.not19.i = icmp eq i32 %4, 0
  br i1 %.not19.i, label %28, label %31

26:                                               ; preds = %23
  %27 = icmp slt i32 %4, 0
  br i1 %27, label %31, label %28

28:                                               ; preds = %26, %25
  %29 = icmp eq ptr %3, %1
  %30 = icmp ne ptr %1, null
  %or.cond.i = and i1 %30, %29
  br i1 %or.cond.i, label %31, label %32

31:                                               ; preds = %28, %26, %25, %21, %20
  store i32 1, ptr %6, align 4, !tbaa !13
  br label %"_ZN6icu_7712ByteSinkUtil28viaByteSinkToTerminatedCharsIZ26uidna_nameToUnicodeUTF8_77E3$_0vEEiPciOT_R10UErrorCode.exit"

32:                                               ; preds = %28
  %33 = getelementptr inbounds nuw i8, ptr %5, i64 2
  %34 = zext nneg i16 %15 to i64
  %35 = add nsw i64 %34, -2
  tail call void @llvm.memset.p0.i64(ptr nonnull align 2 %33, i8 0, i64 %35, i1 false)
  %36 = icmp slt i32 %2, 0
  br i1 %36, label %37, label %40

37:                                               ; preds = %32
  %38 = tail call i64 @strlen(ptr noundef nonnull dereferenceable(1) %1) #20
  %39 = trunc i64 %38 to i32
  br label %40

40:                                               ; preds = %32, %37
  %41 = phi i32 [ %39, %37 ], [ %2, %32 ]
  %42 = load i32, ptr %6, align 4, !tbaa !13
  %43 = icmp slt i32 %42, 1
  br i1 %43, label %44, label %"_ZN6icu_7712ByteSinkUtil28viaByteSinkToTerminatedCharsIZ26uidna_nameToUnicodeUTF8_77E3$_0vEEiPciOT_R10UErrorCode.exit"

44:                                               ; preds = %40
  call void @llvm.lifetime.start.p0(i64 32, ptr nonnull %9) #17
  call void @_ZN6icu_7720CheckedArrayByteSinkC1EPci(ptr noundef nonnull align 8 dereferenceable(29) %9, ptr noundef %3, i32 noundef %4)
  call void @llvm.lifetime.start.p0(i64 12, ptr nonnull %8) #17
  %45 = getelementptr inbounds nuw i8, ptr %8, i64 10
  call void @llvm.memset.p0.i64(ptr noundef nonnull align 4 dereferenceable(11) %8, i8 0, i64 10, i1 false)
  store i8 1, ptr %45, align 2, !tbaa !24
  %46 = load ptr, ptr %0, align 8, !tbaa !15
  %47 = getelementptr inbounds nuw i8, ptr %46, i64 80
  %48 = load ptr, ptr %47, align 8
  invoke void %48(ptr noundef nonnull align 8 dereferenceable(8) %0, ptr %1, i32 %41, ptr noundef nonnull align 8 dereferenceable(8) %9, ptr noundef nonnull align 4 dereferenceable(11) %8, ptr noundef nonnull align 4 dereferenceable(4) %6)
          to label %49 unwind label %54

49:                                               ; preds = %44
  %.val.i.i = load i32, ptr %8, align 4, !tbaa !26
  %50 = getelementptr inbounds nuw i8, ptr %8, i64 8
  %.val3.i.i = load i8, ptr %50, align 4, !tbaa !37
  store i8 %.val3.i.i, ptr %33, align 2, !tbaa !53
  %51 = getelementptr inbounds nuw i8, ptr %5, i64 4
  store i32 %.val.i.i, ptr %51, align 4, !tbaa !54
  call void @llvm.lifetime.end.p0(i64 12, ptr nonnull %8) #17
  %52 = load i32, ptr %6, align 4, !tbaa !13
  %53 = icmp slt i32 %52, 1
  br i1 %53, label %56, label %66

54:                                               ; preds = %44
  %55 = landingpad { ptr, i32 }
          cleanup
  br label %67

56:                                               ; preds = %49
  %57 = getelementptr inbounds nuw i8, ptr %9, i64 24
  %58 = load i32, ptr %57, align 8, !tbaa !58
  %59 = getelementptr inbounds nuw i8, ptr %9, i64 28
  %60 = load i8, ptr %59, align 4, !tbaa !61
  %.not17.i = icmp eq i8 %60, 0
  br i1 %.not17.i, label %62, label %61

61:                                               ; preds = %56
  store i32 15, ptr %6, align 4, !tbaa !13
  br label %66

62:                                               ; preds = %56
  %63 = invoke i32 @u_terminateChars_77(ptr noundef %3, i32 noundef %4, i32 noundef %58, ptr noundef nonnull align 4 dereferenceable(4) %6)
          to label %66 unwind label %64

64:                                               ; preds = %62
  %65 = landingpad { ptr, i32 }
          cleanup
  br label %67

66:                                               ; preds = %62, %61, %49
  %.1.i = phi i32 [ 0, %49 ], [ %58, %61 ], [ %63, %62 ]
  call void @_ZN6icu_7720CheckedArrayByteSinkD1Ev(ptr noundef nonnull align 8 dereferenceable(29) %9) #17
  call void @llvm.lifetime.end.p0(i64 32, ptr nonnull %9) #17
  br label %"_ZN6icu_7712ByteSinkUtil28viaByteSinkToTerminatedCharsIZ26uidna_nameToUnicodeUTF8_77E3$_0vEEiPciOT_R10UErrorCode.exit"

67:                                               ; preds = %64, %54
  %.pn.i = phi { ptr, i32 } [ %65, %64 ], [ %55, %54 ]
  call void @_ZN6icu_7720CheckedArrayByteSinkD1Ev(ptr noundef nonnull align 8 dereferenceable(29) %9) #17
  call void @llvm.lifetime.end.p0(i64 32, ptr nonnull %9) #17
  resume { ptr, i32 } %.pn.i

"_ZN6icu_7712ByteSinkUtil28viaByteSinkToTerminatedCharsIZ26uidna_nameToUnicodeUTF8_77E3$_0vEEiPciOT_R10UErrorCode.exit": ; preds = %7, %31, %17, %66, %40
  %.0 = phi i32 [ %.1.i, %66 ], [ 0, %40 ], [ 0, %17 ], [ 0, %31 ], [ 0, %7 ]
  ret i32 %.0
}